target datalayout = "e-m:e-p270:32:32-p271:32:32-p272:64:64-i64:64-i128:128-f80:128-n8:16:32:64-S128"
target triple = "x86_64-pc-linux-gnu"

%"class.std::__shared_count" = type { ptr }
%"class.std::shared_ptr.19" = type { %"class.std::__shared_ptr.20" }
%"class.std::__shared_ptr.20" = type { ptr, %"class.std::__shared_count" }
%"class.arrow::compute::internal::(anonymous namespace)::HashKernel" = type { %"struct.arrow::compute::KernelState", ptr, %"class.std::mutex" }
%"struct.arrow::compute::KernelState" = type { ptr }
%"class.std::mutex" = type { %"class.std::__mutex_base" }
%"class.std::__mutex_base" = type { %union.pthread_mutex_t }
%union.pthread_mutex_t = type { %struct.__pthread_mutex_s }
%struct.__pthread_mutex_s = type { i32, i32, i32, i32, i32, i16, i16, %struct.__pthread_internal_list }
%struct.__pthread_internal_list = type { ptr, ptr }
%"class.std::_Sp_counted_base" = type { ptr, i32, i32 }
%"class.arrow::compute::internal::(anonymous namespace)::ActionBase" = type { %"class.std::shared_ptr.19", ptr }
%"class.arrow::ArrayBuilder" = type { ptr, ptr, i64, %"class.arrow::TypedBufferBuilder", i64, i64, i64, %"class.std::vector.316" }
%"class.std::vector.316" = type { %"struct.std::_Vector_base.317" }
%"struct.std::_Vector_base.317" = type { %"struct.std::_Vector_base<std::shared_ptr<arrow::ArrayBuilder>, std::allocator<std::shared_ptr<arrow::ArrayBuilder>>>::_Vector_impl" }
%"struct.std::_Vector_base<std::shared_ptr<arrow::ArrayBuilder>, std::allocator<std::shared_ptr<arrow::ArrayBuilder>>>::_Vector_impl" = type { %"struct.std::_Vector_base<std::shared_ptr<arrow::ArrayBuilder>, std::allocator<std::shared_ptr<arrow::ArrayBuilder>>>::_Vector_impl_data" }
%"struct.std::_Vector_base<std::shared_ptr<arrow::ArrayBuilder>, std::allocator<std::shared_ptr<arrow::ArrayBuilder>>>::_Vector_impl_data" = type { ptr, ptr, ptr }
%"class.arrow::TypedBufferBuilder" = type { %"class.arrow::BufferBuilder", i64, i64 }
%"class.arrow::BufferBuilder" = type { %"class.std::shared_ptr.313", ptr, ptr, i64, i64, i64 }
%"class.std::shared_ptr.313" = type { %"class.std::__shared_ptr.314" }
%"class.std::__shared_ptr.314" = type { ptr, %"class.std::__shared_count" }
%"class.std::unique_ptr.547" = type { %"struct.std::__uniq_ptr_data.548" }
%"struct.std::__uniq_ptr_data.548" = type { %"class.std::__uniq_ptr_impl.549" }
%"class.std::__uniq_ptr_impl.549" = type { %"class.std::tuple.550" }
%"class.std::tuple.550" = type { %"struct.std::_Tuple_impl.551" }
%"struct.std::_Tuple_impl.551" = type { %"struct.std::_Head_base.554" }
%"struct.std::_Head_base.554" = type { ptr }
%"class.arrow::TypedBufferBuilder.602" = type { %"class.arrow::BufferBuilder" }
%"class.arrow::compute::internal::(anonymous namespace)::ValueCountsAction" = type { %"class.arrow::compute::internal::(anonymous namespace)::ActionBase", %"class.arrow::NumericBuilder" }
%"class.arrow::NumericBuilder" = type { %"class.arrow::ArrayBuilder", %"class.std::shared_ptr.19", %"class.arrow::TypedBufferBuilder.602" }
%"class.arrow::compute::internal::(anonymous namespace)::RegularHashKernel.838" = type { %"class.arrow::compute::internal::(anonymous namespace)::HashKernel", ptr, %"class.std::shared_ptr.19", %"class.arrow::compute::internal::(anonymous namespace)::ValueCountsAction", %"class.std::unique_ptr.547" }

@__libc_single_threaded = external global i8, align 1

; Function Attrs: alwaysinline mustprogress nounwind uwtable
define linkonce_odr void @_ZN9__gnu_cxx12__atomic_addEPVii(ptr noundef %0, i32 noundef %1) #15 comdat {
  %3 = alloca ptr, align 8
  %4 = alloca i32, align 4
  %5 = alloca i32, align 4
  %6 = alloca i32, align 4
  store ptr %0, ptr %3, align 8, !tbaa !311
  store i32 %1, ptr %4, align 4, !tbaa !8
  %7 = load ptr, ptr %3, align 8, !tbaa !311
  %8 = load i32, ptr %4, align 4, !tbaa !8
  store i32 %8, ptr %5, align 4, !tbaa !8
  %9 = load i32, ptr %5, align 4
  %10 = atomicrmw volatile add ptr %7, i32 %9 acq_rel, align 4
  store i32 %10, ptr %6, align 4
  ret void
}

; Function Attrs: alwaysinline mustprogress nounwind uwtable
define linkonce_odr void @_ZN9__gnu_cxx19__atomic_add_singleEPii(ptr noundef %0, i32 noundef %1) #15 comdat {
  %3 = alloca ptr, align 8
  %4 = alloca i32, align 4
  store ptr %0, ptr %3, align 8, !tbaa !311
  store i32 %1, ptr %4, align 4, !tbaa !8
  %5 = load i32, ptr %4, align 4, !tbaa !8
  %6 = load ptr, ptr %3, align 8, !tbaa !311
  %7 = load i32, ptr %6, align 4, !tbaa !8
  %8 = add nsw i32 %7, %5
  store i32 %8, ptr %6, align 4, !tbaa !8
  ret void
}

; Function Attrs: alwaysinline mustprogress nounwind uwtable
define linkonce_odr noundef zeroext i1 @_ZN9__gnu_cxx20__is_single_threadedEv() #15 comdat {
  %1 = load i8, ptr @__libc_single_threaded, align 1, !tbaa !22
  %2 = icmp ne i8 %1, 0
  ret i1 %2
}

; Function Attrs: alwaysinline mustprogress uwtable
define linkonce_odr void @_ZN9__gnu_cxx21__atomic_add_dispatchEPii(ptr noundef %0, i32 noundef %1) #14 comdat {
  %3 = alloca ptr, align 8
  %4 = alloca i32, align 4
  store ptr %0, ptr %3, align 8, !tbaa !311
  store i32 %1, ptr %4, align 4, !tbaa !8
  %5 = call noundef zeroext i1 @_ZN9__gnu_cxx20__is_single_threadedEv() #5
  br i1 %5, label %6, label %9

6:                                                ; preds = %2
  %7 = load ptr, ptr %3, align 8, !tbaa !311
  %8 = load i32, ptr %4, align 4, !tbaa !8
  call void @_ZN9__gnu_cxx19__atomic_add_singleEPii(ptr noundef %7, i32 noundef %8)
  br label %12

9:                                                ; preds = %2
  %10 = load ptr, ptr %3, align 8, !tbaa !311
  %11 = load i32, ptr %4, align 4, !tbaa !8
  call void @_ZN9__gnu_cxx12__atomic_addEPVii(ptr noundef %10, i32 noundef %11)
  br label %12

12:                                               ; preds = %9, %6
  ret void
}

; Function Attrs: noinline noreturn nounwind uwtable
define linkonce_odr hidden void @__clang_call_terminate(ptr noundef %0) #8 comdat {
  %2 = call ptr @__cxa_begin_catch(ptr %0) #5
  call void @_ZSt9terminatev() #31
  unreachable
}

; Function Attrs: mustprogress uwtable
define linkonce_odr void @_ZNSt16_Sp_counted_baseILN9__gnu_cxx12_Lock_policyE2EE15_M_add_ref_copyEv(ptr noundef nonnull align 8 dereferenceable(16) %0) #3 comdat align 2 {
  %2 = alloca ptr, align 8
  store ptr %0, ptr %2, align 8, !tbaa !310
  %3 = load ptr, ptr %2, align 8
  %4 = getelementptr inbounds nuw %"class.std::_Sp_counted_base", ptr %3, i32 0, i32 1
  call void @_ZN9__gnu_cxx21__atomic_add_dispatchEPii(ptr noundef %4, i32 noundef 1)
  ret void
}

; Function Attrs: mustprogress nounwind uwtable
define linkonce_odr void @_ZNSt14__shared_countILN9__gnu_cxx12_Lock_policyE2EEC2ERKS2_(ptr noundef nonnull align 8 dereferenceable(8) %0, ptr noundef nonnull align 8 dereferenceable(8) %1) unnamed_addr #0 comdat align 2 personality ptr @__gxx_personality_v0 {
  %3 = alloca ptr, align 8
  %4 = alloca ptr, align 8
  store ptr %0, ptr %3, align 8, !tbaa !278
  store ptr %1, ptr %4, align 8, !tbaa !278
  %5 = load ptr, ptr %3, align 8
  %6 = getelementptr inbounds nuw %"class.std::__shared_count", ptr %5, i32 0, i32 0
  %7 = load ptr, ptr %4, align 8, !tbaa !278
  %8 = getelementptr inbounds nuw %"class.std::__shared_count", ptr %7, i32 0, i32 0
  %9 = load ptr, ptr %8, align 8, !tbaa !280
  store ptr %9, ptr %6, align 8, !tbaa !280
  %10 = getelementptr inbounds nuw %"class.std::__shared_count", ptr %5, i32 0, i32 0
  %11 = load ptr, ptr %10, align 8, !tbaa !280
  %12 = icmp ne ptr %11, null
  br i1 %12, label %13, label %17

13:                                               ; preds = %2
  %14 = getelementptr inbounds nuw %"class.std::__shared_count", ptr %5, i32 0, i32 0
  %15 = load ptr, ptr %14, align 8, !tbaa !280
  invoke void @_ZNSt16_Sp_counted_baseILN9__gnu_cxx12_Lock_policyE2EE15_M_add_ref_copyEv(ptr noundef nonnull align 8 dereferenceable(16) %15)
          to label %16 unwind label %18

16:                                               ; preds = %13
  br label %17

17:                                               ; preds = %16, %2
  ret void

18:                                               ; preds = %13
  %19 = landingpad { ptr, i32 }
          catch ptr null
  %20 = extractvalue { ptr, i32 } %19, 0
  call void @__clang_call_terminate(ptr %20) #31
  unreachable
}

; Function Attrs: mustprogress nounwind uwtable
define linkonce_odr void @_ZNSt12__shared_ptrIN5arrow8DataTypeELN9__gnu_cxx12_Lock_policyE2EEC2ERKS4_(ptr noundef nonnull align 8 dereferenceable(16) %0, ptr noundef nonnull align 8 dereferenceable(16) %1) unnamed_addr #0 comdat align 2 {
  %3 = alloca ptr, align 8
  %4 = alloca ptr, align 8
  store ptr %0, ptr %3, align 8, !tbaa !487
  store ptr %1, ptr %4, align 8, !tbaa !487
  %5 = load ptr, ptr %3, align 8
  %6 = getelementptr inbounds nuw %"class.std::__shared_ptr.20", ptr %5, i32 0, i32 0
  %7 = load ptr, ptr %4, align 8, !tbaa !487
  %8 = getelementptr inbounds nuw %"class.std::__shared_ptr.20", ptr %7, i32 0, i32 0
  %9 = load ptr, ptr %8, align 8, !tbaa !489
  store ptr %9, ptr %6, align 8, !tbaa !489
  %10 = getelementptr inbounds nuw %"class.std::__shared_ptr.20", ptr %5, i32 0, i32 1
  %11 = load ptr, ptr %4, align 8, !tbaa !487
  %12 = getelementptr inbounds nuw %"class.std::__shared_ptr.20", ptr %11, i32 0, i32 1
  call void @_ZNSt14__shared_countILN9__gnu_cxx12_Lock_policyE2EEC2ERKS2_(ptr noundef nonnull align 8 dereferenceable(8) %10, ptr noundef nonnull align 8 dereferenceable(8) %12) #5
  ret void
}

; Function Attrs: mustprogress nounwind uwtable
define linkonce_odr void @_ZNSt10shared_ptrIN5arrow8DataTypeEEC2ERKS2_(ptr noundef nonnull align 8 dereferenceable(16) %0, ptr noundef nonnull align 8 dereferenceable(16) %1) unnamed_addr #0 comdat align 2 {
  %3 = alloca ptr, align 8
  %4 = alloca ptr, align 8
  store ptr %0, ptr %3, align 8, !tbaa !152
  store ptr %1, ptr %4, align 8, !tbaa !152
  %5 = load ptr, ptr %3, align 8
  %6 = load ptr, ptr %4, align 8, !tbaa !152
  call void @_ZNSt12__shared_ptrIN5arrow8DataTypeELN9__gnu_cxx12_Lock_policyE2EEC2ERKS4_(ptr noundef nonnull align 8 dereferenceable(16) %5, ptr noundef nonnull align 8 dereferenceable(16) %6) #5
  ret void
}

; Function Attrs: mustprogress nounwind uwtable
define internal void @_ZNK5arrow7compute8internal12_GLOBAL__N_117RegularHashKernelINS_10BinaryTypeENS2_17ValueCountsActionESt17basic_string_viewIcSt11char_traitsIcEELb1EE10value_typeEv(ptr dead_on_unwind noalias writable sret(%"class.std::shared_ptr.19") align 8 %0, ptr noundef nonnull align 8 dereferenceable(328) %1) unnamed_addr #0 align 2 {
  %3 = alloca ptr, align 8
  %4 = alloca ptr, align 8
  store ptr %0, ptr %3, align 8
  store ptr %1, ptr %4, align 8, !tbaa !2751
  %5 = load ptr, ptr %4, align 8
  %6 = getelementptr inbounds nuw %"class.arrow::compute::internal::(anonymous namespace)::RegularHashKernel.838", ptr %5, i32 0, i32 2
  call void @_ZNSt10shared_ptrIN5arrow8DataTypeEEC2ERKS2_(ptr noundef nonnull align 8 dereferenceable(16) %0, ptr noundef nonnull align 8 dereferenceable(16) %6) #5
  ret void
}